target datalayout = "e-m:e-p270:32:32-p271:32:32-p272:64:64-i64:64-i128:128-f80:128-n8:16:32:64-S128"
target triple = "x86_64-pc-linux-gnu"

%struct._object = type { %union.anon.41, ptr }
%union.anon.41 = type { i64 }
%struct.PyVarObject = type { %struct._object, i64 }
%struct.anon.42 = type { i32, i32 }
%struct._typeobject = type { %struct.PyVarObject, ptr, i64, i64, ptr, i64, ptr, ptr, ptr, ptr, ptr, ptr, ptr, ptr, ptr, ptr, ptr, ptr, ptr, i64, ptr, ptr, ptr, ptr, i64, ptr, ptr, ptr, ptr, ptr, ptr, ptr, ptr, ptr, i64, ptr, ptr, ptr, ptr, ptr, ptr, ptr, ptr, ptr, ptr, ptr, i32, ptr, ptr, i8, i16 }

@_Py_tss_tstate = external thread_local global ptr, align 8
@.str.9 = private unnamed_addr constant [2 x i8] c"O\00", align 1
@.str.32 = private unnamed_addr constant [4 x i8] c"sys\00", align 1
@.str.33 = private unnamed_addr constant [20 x i8] c"__interactivehook__\00", align 1
@.str.34 = private unnamed_addr constant [28 x i8] c"cpython.run_interactivehook\00", align 1
@.str.35 = private unnamed_addr constant [40 x i8] c"Failed calling sys.__interactivehook__\0A\00", align 1

; Function Attrs: inlinehint nounwind uwtable
define internal i32 @PyType_HasFeature(ptr noundef %0, i64 noundef %1) #4 {
  %3 = alloca ptr, align 8
  %4 = alloca i64, align 8
  %5 = alloca i64, align 8
  store ptr %0, ptr %3, align 8, !tbaa !223
  store i64 %1, ptr %4, align 8, !tbaa !221
  call void @llvm.lifetime.start.p0(i64 8, ptr %5) #13
  %6 = load ptr, ptr %3, align 8, !tbaa !223
  %7 = getelementptr inbounds nuw %struct._typeobject, ptr %6, i32 0, i32 19
  %8 = load i64, ptr %7, align 8, !tbaa !230
  store i64 %8, ptr %5, align 8, !tbaa !221
  %9 = load i64, ptr %5, align 8, !tbaa !221
  %10 = load i64, ptr %4, align 8, !tbaa !221
  %11 = and i64 %9, %10
  %12 = icmp ne i64 %11, 0
  %13 = zext i1 %12 to i32
  call void @llvm.lifetime.end.p0(i64 8, ptr %5) #13
  ret i32 %13
}

; Function Attrs: inlinehint nounwind uwtable
define internal ptr @_Py_TYPE(ptr noundef %0) #4 {
  %2 = alloca ptr, align 8
  store ptr %0, ptr %2, align 8, !tbaa !177
  %3 = load ptr, ptr %2, align 8, !tbaa !177
  %4 = getelementptr inbounds nuw %struct._object, ptr %3, i32 0, i32 1
  %5 = load ptr, ptr %4, align 8, !tbaa !229
  ret ptr %5
}

; Function Attrs: inlinehint nounwind uwtable
define internal i64 @_PyVectorcall_NARGS(i64 noundef %0) #4 {
  %2 = alloca i64, align 8
  store i64 %0, ptr %2, align 8, !tbaa !221
  %3 = load i64, ptr %2, align 8, !tbaa !221
  %4 = and i64 %3, 9223372036854775807
  ret i64 %4
}

; Function Attrs: inlinehint nounwind uwtable
define internal ptr @_PyVectorcall_FunctionInline(ptr noundef %0) #4 {
  %2 = alloca ptr, align 8
  %3 = alloca ptr, align 8
  %4 = alloca ptr, align 8
  %5 = alloca i32, align 4
  %6 = alloca i64, align 8
  %7 = alloca ptr, align 8
  store ptr %0, ptr %3, align 8, !tbaa !177
  call void @llvm.lifetime.start.p0(i64 8, ptr %4) #13
  %8 = load ptr, ptr %3, align 8, !tbaa !177
  %9 = call ptr @_Py_TYPE(ptr noundef %8)
  store ptr %9, ptr %4, align 8, !tbaa !223
  %10 = load ptr, ptr %4, align 8, !tbaa !223
  %11 = call i32 @PyType_HasFeature(ptr noundef %10, i64 noundef 2048)
  %12 = icmp ne i32 %11, 0
  br i1 %12, label %14, label %13

13:                                               ; preds = %1
  store ptr null, ptr %2, align 8
  store i32 1, ptr %5, align 4
  br label %22

14:                                               ; preds = %1
  call void @llvm.lifetime.start.p0(i64 8, ptr %6) #13
  %15 = load ptr, ptr %4, align 8, !tbaa !223
  %16 = getelementptr inbounds nuw %struct._typeobject, ptr %15, i32 0, i32 5
  %17 = load i64, ptr %16, align 8, !tbaa !224
  store i64 %17, ptr %6, align 8, !tbaa !221
  call void @llvm.lifetime.start.p0(i64 8, ptr %7) #13
  %18 = load ptr, ptr %3, align 8, !tbaa !177
  %19 = load i64, ptr %6, align 8, !tbaa !221
  %20 = getelementptr i8, ptr %18, i64 %19
  call void @llvm.memcpy.p0.p0.i64(ptr align 8 %7, ptr align 1 %20, i64 8, i1 false)
  %21 = load ptr, ptr %7, align 8, !tbaa !222
  store ptr %21, ptr %2, align 8
  store i32 1, ptr %5, align 4
  call void @llvm.lifetime.end.p0(i64 8, ptr %7) #13
  call void @llvm.lifetime.end.p0(i64 8, ptr %6) #13
  br label %22

22:                                               ; preds = %14, %13
  call void @llvm.lifetime.end.p0(i64 8, ptr %4) #13
  %23 = load ptr, ptr %2, align 8
  ret ptr %23
}

; Function Attrs: inlinehint nounwind uwtable
define internal ptr @_PyObject_VectorcallTstate(ptr noundef %0, ptr noundef %1, ptr noundef %2, i64 noundef %3, ptr noundef %4) #4 {
  %6 = alloca ptr, align 8
  %7 = alloca ptr, align 8
  %8 = alloca ptr, align 8
  %9 = alloca ptr, align 8
  %10 = alloca i64, align 8
  %11 = alloca ptr, align 8
  %12 = alloca ptr, align 8
  %13 = alloca ptr, align 8
  %14 = alloca i64, align 8
  %15 = alloca i32, align 4
  store ptr %0, ptr %7, align 8, !tbaa !200
  store ptr %1, ptr %8, align 8, !tbaa !177
  store ptr %2, ptr %9, align 8, !tbaa !185
  store i64 %3, ptr %10, align 8, !tbaa !221
  store ptr %4, ptr %11, align 8, !tbaa !177
  call void @llvm.lifetime.start.p0(i64 8, ptr %12) #13
  call void @llvm.lifetime.start.p0(i64 8, ptr %13) #13
  %16 = load ptr, ptr %8, align 8, !tbaa !177
  %17 = call ptr @_PyVectorcall_FunctionInline(ptr noundef %16)
  store ptr %17, ptr %12, align 8, !tbaa !222
  %18 = load ptr, ptr %12, align 8, !tbaa !222
  %19 = icmp eq ptr %18, null
  br i1 %19, label %20, label %29

20:                                               ; preds = %5
  call void @llvm.lifetime.start.p0(i64 8, ptr %14) #13
  %21 = load i64, ptr %10, align 8, !tbaa !221
  %22 = call i64 @_PyVectorcall_NARGS(i64 noundef %21)
  store i64 %22, ptr %14, align 8, !tbaa !221
  %23 = load ptr, ptr %7, align 8, !tbaa !200
  %24 = load ptr, ptr %8, align 8, !tbaa !177
  %25 = load ptr, ptr %9, align 8, !tbaa !185
  %26 = load i64, ptr %14, align 8, !tbaa !221
  %27 = load ptr, ptr %11, align 8, !tbaa !177
  %28 = call ptr @_PyObject_MakeTpCall(ptr noundef %23, ptr noundef %24, ptr noundef %25, i64 noundef %26, ptr noundef %27)
  store ptr %28, ptr %6, align 8
  store i32 1, ptr %15, align 4
  call void @llvm.lifetime.end.p0(i64 8, ptr %14) #13
  br label %40

29:                                               ; preds = %5
  %30 = load ptr, ptr %12, align 8, !tbaa !222
  %31 = load ptr, ptr %8, align 8, !tbaa !177
  %32 = load ptr, ptr %9, align 8, !tbaa !185
  %33 = load i64, ptr %10, align 8, !tbaa !221
  %34 = load ptr, ptr %11, align 8, !tbaa !177
  %35 = call ptr %30(ptr noundef %31, ptr noundef %32, i64 noundef %33, ptr noundef %34)
  store ptr %35, ptr %13, align 8, !tbaa !177
  %36 = load ptr, ptr %7, align 8, !tbaa !200
  %37 = load ptr, ptr %8, align 8, !tbaa !177
  %38 = load ptr, ptr %13, align 8, !tbaa !177
  %39 = call ptr @_Py_CheckFunctionResult(ptr noundef %36, ptr noundef %37, ptr noundef %38, ptr noundef null)
  store ptr %39, ptr %6, align 8
  store i32 1, ptr %15, align 4
  br label %40

40:                                               ; preds = %29, %20
  call void @llvm.lifetime.end.p0(i64 8, ptr %13) #13
  call void @llvm.lifetime.end.p0(i64 8, ptr %12) #13
  %41 = load ptr, ptr %6, align 8
  ret ptr %41
}

; Function Attrs: inlinehint nounwind uwtable
define internal ptr @_PyThreadState_GET() #4 {
  %1 = call align 8 ptr @llvm.threadlocal.address.p0(ptr align 8 @_Py_tss_tstate)
  %2 = load ptr, ptr %1, align 8, !tbaa !200
  ret ptr %2
}

; Function Attrs: alwaysinline nounwind uwtable
define internal i32 @_Py_IsImmortal(ptr noundef %0) #5 {
  %2 = alloca ptr, align 8
  store ptr %0, ptr %2, align 8, !tbaa !177
  %3 = load ptr, ptr %2, align 8, !tbaa !177
  %4 = getelementptr inbounds nuw %struct._object, ptr %3, i32 0, i32 0
  %5 = getelementptr inbounds nuw %struct.anon.42, ptr %4, i32 0, i32 0
  %6 = load i32, ptr %5, align 8, !tbaa !205
  %7 = icmp slt i32 %6, 0
  %8 = zext i1 %7 to i32
  ret i32 %8
}

; Function Attrs: nounwind uwtable
define internal i32 @pymain_err_print(ptr noundef %0) #0 {
  %2 = alloca i32, align 4
  %3 = alloca ptr, align 8
  %4 = alloca i32, align 4
  %5 = alloca i32, align 4
  store ptr %0, ptr %3, align 8, !tbaa !176
  call void @llvm.lifetime.start.p0(i64 4, ptr %4) #13
  %6 = call i32 @_Py_HandleSystemExit(ptr noundef %4)
  %7 = icmp ne i32 %6, 0
  br i1 %7, label %8, label %11

8:                                                ; preds = %1
  %9 = load i32, ptr %4, align 4, !tbaa !4
  %10 = load ptr, ptr %3, align 8, !tbaa !176
  store i32 %9, ptr %10, align 4, !tbaa !4
  store i32 1, ptr %2, align 4
  store i32 1, ptr %5, align 4
  br label %12

11:                                               ; preds = %1
  call void @PyErr_Print()
  store i32 0, ptr %2, align 4
  store i32 1, ptr %5, align 4
  br label %12

12:                                               ; preds = %11, %8
  call void @llvm.lifetime.end.p0(i64 4, ptr %4) #13
  %13 = load i32, ptr %2, align 4
  ret i32 %13
}

; Function Attrs: inlinehint nounwind uwtable
define internal ptr @_PyObject_CallNoArgs(ptr noundef %0) #4 {
  %2 = alloca ptr, align 8
  %3 = alloca ptr, align 8
  store ptr %0, ptr %2, align 8, !tbaa !177
  call void @llvm.lifetime.start.p0(i64 8, ptr %3) #13
  %4 = call ptr @_PyThreadState_GET()
  store ptr %4, ptr %3, align 8, !tbaa !200
  %5 = load ptr, ptr %3, align 8, !tbaa !200
  %6 = load ptr, ptr %2, align 8, !tbaa !177
  %7 = call ptr @_PyObject_VectorcallTstate(ptr noundef %5, ptr noundef %6, ptr noundef null, i64 noundef 0, ptr noundef null)
  call void @llvm.lifetime.end.p0(i64 8, ptr %3) #13
  ret ptr %7
}

; Function Attrs: alwaysinline nounwind uwtable
define internal void @Py_DECREF(ptr noundef %0) #5 {
  %2 = alloca ptr, align 8
  store ptr %0, ptr %2, align 8, !tbaa !177
  %3 = load ptr, ptr %2, align 8, !tbaa !177
  %4 = call i32 @_Py_IsImmortal(ptr noundef %3)
  %5 = icmp ne i32 %4, 0
  br i1 %5, label %6, label %7

6:                                                ; preds = %1
  br label %16

7:                                                ; preds = %1
  %8 = load ptr, ptr %2, align 8, !tbaa !177
  %9 = getelementptr inbounds nuw %struct._object, ptr %8, i32 0, i32 0
  %10 = getelementptr inbounds nuw %struct.anon.42, ptr %9, i32 0, i32 0
  %11 = load i32, ptr %10, align 8, !tbaa !205
  %12 = add i32 %11, -1
  store i32 %12, ptr %10, align 8, !tbaa !205
  %13 = icmp eq i32 %12, 0
  br i1 %13, label %14, label %16

14:                                               ; preds = %7
  %15 = load ptr, ptr %2, align 8, !tbaa !177
  call void @_Py_Dealloc(ptr noundef %15)
  br label %16

16:                                               ; preds = %6, %14, %7
  ret void
}

; Function Attrs: nounwind uwtable
define internal i32 @pymain_run_interactive_hook(ptr noundef %0) #0 {
  %2 = alloca i32, align 4
  %3 = alloca ptr, align 8
  %4 = alloca ptr, align 8
  %5 = alloca ptr, align 8
  %6 = alloca ptr, align 8
  %7 = alloca i32, align 4
  store ptr %0, ptr %3, align 8, !tbaa !176
  call void @llvm.lifetime.start.p0(i64 8, ptr %4) #13
  call void @llvm.lifetime.start.p0(i64 8, ptr %5) #13
  call void @llvm.lifetime.start.p0(i64 8, ptr %6) #13
  %8 = call ptr @PyImport_ImportModule(ptr noundef @.str.32)
  store ptr %8, ptr %4, align 8, !tbaa !177
  %9 = load ptr, ptr %4, align 8, !tbaa !177
  %10 = icmp eq ptr %9, null
  br i1 %10, label %11, label %12

11:                                               ; preds = %1
  br label %33

12:                                               ; preds = %1
  %13 = load ptr, ptr %4, align 8, !tbaa !177
  %14 = call ptr @PyObject_GetAttrString(ptr noundef %13, ptr noundef @.str.33)
  store ptr %14, ptr %5, align 8, !tbaa !177
  %15 = load ptr, ptr %4, align 8, !tbaa !177
  call void @Py_DECREF(ptr noundef %15)
  %16 = load ptr, ptr %5, align 8, !tbaa !177
  %17 = icmp eq ptr %16, null
  br i1 %17, label %18, label %19

18:                                               ; preds = %12
  call void @PyErr_Clear()
  store i32 0, ptr %2, align 4
  store i32 1, ptr %7, align 4
  br label %36

19:                                               ; preds = %12
  %20 = load ptr, ptr %5, align 8, !tbaa !177
  %21 = call i32 (ptr, ptr, ...) @PySys_Audit(ptr noundef @.str.34, ptr noundef @.str.9, ptr noundef %20)
  %22 = icmp slt i32 %21, 0
  br i1 %22, label %23, label %24

23:                                               ; preds = %19
  br label %33

24:                                               ; preds = %19
  %25 = load ptr, ptr %5, align 8, !tbaa !177
  %26 = call ptr @_PyObject_CallNoArgs(ptr noundef %25)
  store ptr %26, ptr %6, align 8, !tbaa !177
  %27 = load ptr, ptr %5, align 8, !tbaa !177
  call void @Py_DECREF(ptr noundef %27)
  %28 = load ptr, ptr %6, align 8, !tbaa !177
  %29 = icmp eq ptr %28, null
  br i1 %29, label %30, label %31

30:                                               ; preds = %24
  br label %33

31:                                               ; preds = %24
  %32 = load ptr, ptr %6, align 8, !tbaa !177
  call void @Py_DECREF(ptr noundef %32)
  store i32 0, ptr %2, align 4
  store i32 1, ptr %7, align 4
  br label %36

33:                                               ; preds = %30, %23, %11
  call void (ptr, ...) @PySys_WriteStderr(ptr noundef @.str.35)
  %34 = load ptr, ptr %3, align 8, !tbaa !176
  %35 = call i32 @pymain_err_print(ptr noundef %34)
  store i32 %35, ptr %2, align 4
  store i32 1, ptr %7, align 4
  br label %36

36:                                               ; preds = %33, %31, %18
  call void @llvm.lifetime.end.p0(i64 8, ptr %6) #13
  call void @llvm.lifetime.end.p0(i64 8, ptr %5) #13
  call void @llvm.lifetime.end.p0(i64 8, ptr %4) #13
  %37 = load i32, ptr %2, align 4
  ret i32 %37
}