; Function Attrs: nounwind uwtable
define internal fastcc range(i32 0, 2) i32 @pymain_run_interactive_hook(ptr noundef nonnull writeonly captures(none) %0) unnamed_addr #0 {
  %2 = alloca i32, align 4
  %3 = tail call ptr @PyImport_ImportModule(ptr noundef nonnull @.str.32) #14
  %4 = icmp eq ptr %3, null
  br i1 %4, label %43, label %5

5:                                                ; preds = %1
  %6 = tail call ptr @PyObject_GetAttrString(ptr noundef nonnull %3, ptr noundef nonnull @.str.33) #14
  %7 = load i32, ptr %3, align 8, !tbaa !30
  %.not.i15 = icmp sgt i32 %7, -1
  br i1 %.not.i15, label %8, label %Py_DECREF.exit16

8:                                                ; preds = %5
  %9 = add nsw i32 %7, -1
  store i32 %9, ptr %3, align 8, !tbaa !30
  %10 = icmp eq i32 %9, 0
  br i1 %10, label %11, label %Py_DECREF.exit16

11:                                               ; preds = %8
  tail call void @_Py_Dealloc(ptr noundef nonnull %3) #14
  br label %Py_DECREF.exit16

Py_DECREF.exit16:                                 ; preds = %5, %8, %11
  %12 = icmp eq ptr %6, null
  br i1 %12, label %13, label %14

13:                                               ; preds = %Py_DECREF.exit16
  tail call void @PyErr_Clear() #14
  br label %Py_DECREF.exit

14:                                               ; preds = %Py_DECREF.exit16
  %15 = tail call i32 (ptr, ptr, ...) @PySys_Audit(ptr noundef nonnull @.str.34, ptr noundef nonnull @.str.9, ptr noundef nonnull %6) #14
  %16 = icmp slt i32 %15, 0
  br i1 %16, label %43, label %17

17:                                               ; preds = %14
  %18 = tail call align 8 ptr @llvm.threadlocal.address.p0(ptr align 8 @_Py_tss_tstate)
  %19 = load ptr, ptr %18, align 8, !tbaa !8
  %20 = getelementptr i8, ptr %6, i64 8
  %.val.i.i.i = load ptr, ptr %20, align 8, !tbaa !213
  %21 = getelementptr i8, ptr %.val.i.i.i, i64 168
  %.val6.i.i.i = load i64, ptr %21, align 8, !tbaa !214
  %22 = and i64 %.val6.i.i.i, 2048
  %.not.i.i.i = icmp eq i64 %22, 0
  br i1 %.not.i.i.i, label %_PyVectorcall_FunctionInline.exit.thread.i.i, label %_PyVectorcall_FunctionInline.exit.i.i

_PyVectorcall_FunctionInline.exit.i.i:            ; preds = %17
  %23 = getelementptr inbounds nuw i8, ptr %.val.i.i.i, i64 56
  %24 = load i64, ptr %23, align 8, !tbaa !219
  %25 = getelementptr i8, ptr %6, i64 %24
  %.0.copyload.i.i.i = load ptr, ptr %25, align 1
  %26 = icmp eq ptr %.0.copyload.i.i.i, null
  br i1 %26, label %_PyVectorcall_FunctionInline.exit.thread.i.i, label %28

_PyVectorcall_FunctionInline.exit.thread.i.i:     ; preds = %_PyVectorcall_FunctionInline.exit.i.i, %17
  %27 = tail call ptr @_PyObject_MakeTpCall(ptr noundef %19, ptr noundef nonnull %6, ptr noundef null, i64 noundef 0, ptr noundef null) #14
  br label %_PyObject_CallNoArgs.exit

28:                                               ; preds = %_PyVectorcall_FunctionInline.exit.i.i
  %29 = tail call ptr %.0.copyload.i.i.i(ptr noundef nonnull %6, ptr noundef null, i64 noundef 0, ptr noundef null) #14
  %30 = tail call ptr @_Py_CheckFunctionResult(ptr noundef %19, ptr noundef nonnull %6, ptr noundef %29, ptr noundef null) #14
  br label %_PyObject_CallNoArgs.exit

_PyObject_CallNoArgs.exit:                        ; preds = %_PyVectorcall_FunctionInline.exit.thread.i.i, %28
  %.0.i.i = phi ptr [ %27, %_PyVectorcall_FunctionInline.exit.thread.i.i ], [ %30, %28 ]
  %31 = load i32, ptr %6, align 8, !tbaa !30
  %.not.i13 = icmp sgt i32 %31, -1
  br i1 %.not.i13, label %32, label %Py_DECREF.exit14

32:                                               ; preds = %_PyObject_CallNoArgs.exit
  %33 = add nsw i32 %31, -1
  store i32 %33, ptr %6, align 8, !tbaa !30
  %34 = icmp eq i32 %33, 0
  br i1 %34, label %35, label %Py_DECREF.exit14

35:                                               ; preds = %32
  tail call void @_Py_Dealloc(ptr noundef nonnull %6) #14
  br label %Py_DECREF.exit14

Py_DECREF.exit14:                                 ; preds = %_PyObject_CallNoArgs.exit, %32, %35
  %36 = icmp eq ptr %.0.i.i, null
  br i1 %36, label %43, label %37

37:                                               ; preds = %Py_DECREF.exit14
  %38 = load i32, ptr %.0.i.i, align 8, !tbaa !30
  %.not.i = icmp sgt i32 %38, -1
  br i1 %.not.i, label %39, label %Py_DECREF.exit

39:                                               ; preds = %37
  %40 = add nsw i32 %38, -1
  store i32 %40, ptr %.0.i.i, align 8, !tbaa !30
  %41 = icmp eq i32 %40, 0
  br i1 %41, label %42, label %Py_DECREF.exit

42:                                               ; preds = %39
  tail call void @_Py_Dealloc(ptr noundef nonnull %.0.i.i) #14
  br label %Py_DECREF.exit

43:                                               ; preds = %Py_DECREF.exit14, %14, %1
  tail call void (ptr, ...) @PySys_WriteStderr(ptr noundef nonnull @.str.35) #14
  call void @llvm.lifetime.start.p0(i64 4, ptr nonnull %2) #14
  %44 = call i32 @_Py_HandleSystemExit(ptr noundef nonnull %2) #14
  %.not.i19 = icmp eq i32 %44, 0
  br i1 %.not.i19, label %47, label %45

45:                                               ; preds = %43
  %46 = load i32, ptr %2, align 4, !tbaa !4
  store i32 %46, ptr %0, align 4, !tbaa !4
  br label %pymain_err_print.exit

47:                                               ; preds = %43
  call void @PyErr_Print() #14
  br label %pymain_err_print.exit

pymain_err_print.exit:                            ; preds = %45, %47
  %.0.i = phi i32 [ 1, %45 ], [ 0, %47 ]
  call void @llvm.lifetime.end.p0(i64 4, ptr nonnull %2) #14
  br label %Py_DECREF.exit

Py_DECREF.exit:                                   ; preds = %42, %39, %37, %pymain_err_print.exit, %13
  %.0 = phi i32 [ %.0.i, %pymain_err_print.exit ], [ 0, %13 ], [ 0, %37 ], [ 0, %39 ], [ 0, %42 ]
  ret i32 %.0
}